target datalayout = "e-m:e-p270:32:32-p271:32:32-p272:64:64-i64:64-i128:128-f80:128-n8:16:32:64-S128"
target triple = "x86_64-pc-linux-gnu"

%struct.expert_field = type { i32, i32 }
%struct.ansi_a_shared_data_t = type { ptr, ptr, ptr, i8, i8, %struct._address, i32, %struct.e_in6_addr, i16, i8 }
%struct._address = type { i32, i32, ptr, ptr }
%struct.e_in6_addr = type { [16 x i8] }

@.str.275 = private unnamed_addr constant [9 x i8] c"Reserved\00", align 1
@ei_ansi_a_extraneous_data = internal global %struct.expert_field zeroinitializer, align 4
@hf_ansi_a_reserved_bits_8_e0 = internal global i32 0, align 4
@hf_ansi_a_band_class = internal global i32 0, align 4
@.str.1006 = private unnamed_addr constant [8 x i8] c" - (%s)\00", align 1

; Function Attrs: null_pointer_is_valid sspstrong uwtable
define internal zeroext i8 @elem_band_class(ptr noundef %0, ptr noundef %1, ptr noundef %2, i32 noundef %3, i32 noundef %4, ptr noundef %5) #1 {
  %7 = alloca ptr, align 8
  %8 = alloca ptr, align 8
  %9 = alloca ptr, align 8
  %10 = alloca i32, align 4
  %11 = alloca i32, align 4
  %12 = alloca ptr, align 8
  %13 = alloca i8, align 1
  %14 = alloca i32, align 4
  store ptr %0, ptr %7, align 8
  store ptr %1, ptr %8, align 8
  store ptr %2, ptr %9, align 8
  store i32 %3, ptr %10, align 4
  store i32 %4, ptr %11, align 4
  store ptr %5, ptr %12, align 8
  call void @llvm.lifetime.start.p0(i64 1, ptr %13) #8
  call void @llvm.lifetime.start.p0(i64 4, ptr %14) #8
  %15 = load i32, ptr %10, align 4
  store i32 %15, ptr %14, align 4
  %16 = load ptr, ptr %9, align 8
  %17 = load i32, ptr @hf_ansi_a_reserved_bits_8_e0, align 4
  %18 = load ptr, ptr %7, align 8
  %19 = load i32, ptr %14, align 4
  %20 = call ptr @proto_tree_add_item(ptr noundef %16, i32 noundef %17, ptr noundef %18, i32 noundef %19, i32 noundef 1, i32 noundef 0)
  %21 = load ptr, ptr %9, align 8
  %22 = load i32, ptr @hf_ansi_a_band_class, align 4
  %23 = load ptr, ptr %7, align 8
  %24 = load i32, ptr %14, align 4
  %25 = call ptr @proto_tree_add_item(ptr noundef %21, i32 noundef %22, ptr noundef %23, i32 noundef %24, i32 noundef 1, i32 noundef 0)
  %26 = load ptr, ptr %7, align 8
  %27 = load i32, ptr %14, align 4
  %28 = call zeroext i8 @tvb_get_uint8(ptr noundef %26, i32 noundef %27)
  store i8 %28, ptr %13, align 1
  %29 = load ptr, ptr %12, align 8
  %30 = getelementptr inbounds nuw %struct.ansi_a_shared_data_t, ptr %29, i32 0, i32 2
  %31 = load ptr, ptr %30, align 8
  %32 = load i8, ptr %13, align 1
  %33 = zext i8 %32 to i32
  %34 = and i32 %33, 31
  %35 = call ptr @val_to_str_const(i32 noundef %34, ptr noundef @ansi_a_band_class_vals, ptr noundef @.str.275)
  call void (ptr, ptr, ...) @proto_item_append_text(ptr noundef %31, ptr noundef @.str.1006, ptr noundef %35)
  %36 = load i32, ptr %14, align 4
  %37 = add i32 %36, 1
  store i32 %37, ptr %14, align 4
  %38 = load i32, ptr %11, align 4
  %39 = load i32, ptr %14, align 4
  %40 = load i32, ptr %10, align 4
  %41 = sub i32 %39, %40
  %42 = icmp ugt i32 %38, %41
  br i1 %42, label %43, label %61

43:                                               ; preds = %6
  %44 = load ptr, ptr %9, align 8
  %45 = load ptr, ptr %8, align 8
  %46 = load ptr, ptr %7, align 8
  %47 = load i32, ptr %14, align 4
  %48 = load i32, ptr %11, align 4
  %49 = load i32, ptr %14, align 4
  %50 = load i32, ptr %10, align 4
  %51 = sub i32 %49, %50
  %52 = sub i32 %48, %51
  %53 = call ptr @proto_tree_add_expert(ptr noundef %44, ptr noundef %45, ptr noundef @ei_ansi_a_extraneous_data, ptr noundef %46, i32 noundef %47, i32 noundef %52)
  %54 = load i32, ptr %11, align 4
  %55 = load i32, ptr %14, align 4
  %56 = load i32, ptr %10, align 4
  %57 = sub i32 %55, %56
  %58 = sub i32 %54, %57
  %59 = load i32, ptr %14, align 4
  %60 = add i32 %59, %58
  store i32 %60, ptr %14, align 4
  br label %61

61:                                               ; preds = %43, %6
  %62 = load i32, ptr %14, align 4
  %63 = load i32, ptr %10, align 4
  %64 = sub i32 %62, %63
  %65 = trunc i32 %64 to i8
  call void @llvm.lifetime.end.p0(i64 4, ptr %14) #8
  call void @llvm.lifetime.end.p0(i64 1, ptr %13) #8
  ret i8 %65
}