; Function Attrs: null_pointer_is_valid sspstrong uwtable
define internal noundef zeroext i8 @elem_band_class(ptr noundef %0, ptr noundef %1, ptr noundef %2, i32 noundef %3, i32 noundef %4, ptr noundef readonly captures(none) %5) #1 {
  %7 = load i32, ptr @hf_ansi_a_reserved_bits_8_e0, align 4
  %8 = tail call ptr @proto_tree_add_item(ptr noundef %2, i32 noundef %7, ptr noundef %0, i32 noundef %3, i32 noundef 1, i32 noundef 0)
  %9 = load i32, ptr @hf_ansi_a_band_class, align 4
  %10 = tail call ptr @proto_tree_add_item(ptr noundef %2, i32 noundef %9, ptr noundef %0, i32 noundef %3, i32 noundef 1, i32 noundef 0)
  %11 = tail call zeroext i8 @tvb_get_uint8(ptr noundef %0, i32 noundef %3)
  %12 = getelementptr inbounds nuw i8, ptr %5, i64 16
  %13 = load ptr, ptr %12, align 8
  %14 = and i8 %11, 31
  %15 = zext nneg i8 %14 to i32
  %16 = tail call ptr @val_to_str_const(i32 noundef %15, ptr noundef nonnull @ansi_a_band_class_vals, ptr noundef nonnull @.str.275)
  tail call void (ptr, ptr, ...) @proto_item_append_text(ptr noundef %13, ptr noundef nonnull @.str.1006, ptr noundef %16)
  %17 = add i32 %3, 1
  %18 = icmp ugt i32 %4, 1
  br i1 %18, label %19, label %23

19:                                               ; preds = %6
  %20 = add i32 %4, -1
  %21 = tail call ptr @proto_tree_add_expert(ptr noundef %2, ptr noundef %1, ptr noundef nonnull @ei_ansi_a_extraneous_data, ptr noundef %0, i32 noundef %17, i32 noundef %20)
  %22 = add i32 %4, %3
  br label %23

23:                                               ; preds = %19, %6
  %.0 = phi i32 [ %22, %19 ], [ %17, %6 ]
  %24 = sub i32 %.0, %3
  %25 = trunc i32 %24 to i8
  ret i8 %25
}